target datalayout = "e-m:e-p270:32:32-p271:32:32-p272:64:64-i64:64-i128:128-f80:128-n8:16:32:64-S128"
target triple = "x86_64-pc-linux-gnu"

@hf_gsm_a_gm_paging_time_window = internal global i32 0, align 4
@hf_gsm_a_gm_edrx_value = internal global i32 0, align 4
@hf_gsm_a_gm_ext_paging_time_window = internal global i32 0, align 4

; Function Attrs: null_pointer_is_valid sspstrong uwtable
define internal zeroext i16 @de_gmm_ext_drx_params(ptr noundef %0, ptr noundef %1, ptr noundef %2, i32 noundef %3, i32 noundef %4, ptr noundef %5, i32 noundef %6) #1 {
  %8 = alloca i16, align 2
  %9 = alloca ptr, align 8
  %10 = alloca ptr, align 8
  %11 = alloca ptr, align 8
  %12 = alloca i32, align 4
  %13 = alloca i32, align 4
  %14 = alloca ptr, align 8
  %15 = alloca i32, align 4
  %16 = alloca i32, align 4
  %17 = alloca i32, align 4
  store ptr %0, ptr %9, align 8
  store ptr %1, ptr %10, align 8
  store ptr %2, ptr %11, align 8
  store i32 %3, ptr %12, align 4
  store i32 %4, ptr %13, align 4
  store ptr %5, ptr %14, align 8
  store i32 %6, ptr %15, align 4
  call void @llvm.lifetime.start.p0(i64 4, ptr %16) #6
  %18 = load i32, ptr %12, align 4
  store i32 %18, ptr %16, align 4
  %19 = load ptr, ptr %10, align 8
  %20 = load i32, ptr @hf_gsm_a_gm_paging_time_window, align 4
  %21 = load ptr, ptr %9, align 8
  %22 = load i32, ptr %16, align 4
  %23 = call ptr @proto_tree_add_item(ptr noundef %19, i32 noundef %20, ptr noundef %21, i32 noundef %22, i32 noundef 1, i32 noundef 0)
  %24 = load ptr, ptr %10, align 8
  %25 = load i32, ptr @hf_gsm_a_gm_edrx_value, align 4
  %26 = load ptr, ptr %9, align 8
  %27 = load i32, ptr %16, align 4
  %28 = call ptr @proto_tree_add_item(ptr noundef %24, i32 noundef %25, ptr noundef %26, i32 noundef %27, i32 noundef 1, i32 noundef 0)
  %29 = load i32, ptr %16, align 4
  %30 = add i32 %29, 1
  store i32 %30, ptr %16, align 4
  %31 = load i32, ptr %16, align 4
  %32 = load i32, ptr %12, align 4
  %33 = sub i32 %31, %32
  %34 = load i32, ptr %13, align 4
  %35 = icmp uge i32 %33, %34
  br i1 %35, label %36, label %39

36:                                               ; preds = %7
  %37 = load i32, ptr %13, align 4
  %38 = trunc i32 %37 to i16
  store i16 %38, ptr %8, align 2
  store i32 1, ptr %17, align 4
  br label %47

39:                                               ; preds = %7
  %40 = load ptr, ptr %10, align 8
  %41 = load i32, ptr @hf_gsm_a_gm_ext_paging_time_window, align 4
  %42 = load ptr, ptr %9, align 8
  %43 = load i32, ptr %16, align 4
  %44 = call ptr @proto_tree_add_item(ptr noundef %40, i32 noundef %41, ptr noundef %42, i32 noundef %43, i32 noundef 1, i32 noundef 0)
  %45 = load i32, ptr %13, align 4
  %46 = trunc i32 %45 to i16
  store i16 %46, ptr %8, align 2
  store i32 1, ptr %17, align 4
  br label %47

47:                                               ; preds = %39, %36
  call void @llvm.lifetime.end.p0(i64 4, ptr %16) #6
  %48 = load i16, ptr %8, align 2
  ret i16 %48
}