; Function Attrs: null_pointer_is_valid sspstrong uwtable
define internal noundef zeroext i16 @de_gmm_ext_drx_params(ptr noundef %0, ptr noundef %1, ptr readnone captures(none) %2, i32 noundef %3, i32 noundef %4, ptr readnone captures(none) %5, i32 %6) #1 {
  %8 = load i32, ptr @hf_gsm_a_gm_paging_time_window, align 4
  %9 = tail call ptr @proto_tree_add_item(ptr noundef %1, i32 noundef %8, ptr noundef %0, i32 noundef %3, i32 noundef 1, i32 noundef 0)
  %10 = load i32, ptr @hf_gsm_a_gm_edrx_value, align 4
  %11 = tail call ptr @proto_tree_add_item(ptr noundef %1, i32 noundef %10, ptr noundef %0, i32 noundef %3, i32 noundef 1, i32 noundef 0)
  %12 = icmp ult i32 %4, 2
  br i1 %12, label %17, label %13

13:                                               ; preds = %7
  %14 = add i32 %3, 1
  %15 = load i32, ptr @hf_gsm_a_gm_ext_paging_time_window, align 4
  %16 = tail call ptr @proto_tree_add_item(ptr noundef %1, i32 noundef %15, ptr noundef %0, i32 noundef %14, i32 noundef 1, i32 noundef 0)
  br label %17

17:                                               ; preds = %7, %13
  %.0 = trunc i32 %4 to i16
  ret i16 %.0
}